
BootLoader.om:     file format elf32-tradbigmips

Disassembly of section .text:

30000000 <_start>:
30000000:	3c011000 	lui	at,0x1000
30000004:	34210003 	ori	at,at,0x3
30000008:	34020080 	li	v0,0x80
3000000c:	a0220000 	sb	v0,0(at)
30000010:	3c011000 	lui	at,0x1000
30000014:	34210001 	ori	at,at,0x1
30000018:	34020000 	li	v0,0x0
3000001c:	a0220000 	sb	v0,0(at)
30000020:	3c011000 	lui	at,0x1000
30000024:	34210000 	ori	at,at,0x0
30000028:	340200b0 	li	v0,0xb0
3000002c:	a0220000 	sb	v0,0(at)
30000030:	3c011000 	lui	at,0x1000
30000034:	34210003 	ori	at,at,0x3
30000038:	34020003 	li	v0,0x3
3000003c:	a0220000 	sb	v0,0(at)
30000040:	3c012000 	lui	at,0x2000
30000044:	34210008 	ori	at,at,0x8
30000048:	3c02ffff 	lui	v0,0xffff
3000004c:	3442ffff 	ori	v0,v0,0xffff
30000050:	ac220000 	sw	v0,0(at)
30000054:	3c012000 	lui	at,0x2000
30000058:	3421000c 	ori	at,at,0xc
3000005c:	3c020000 	lui	v0,0x0
30000060:	34420000 	ori	v0,v0,0x0
30000064:	ac220000 	sw	v0,0(at)

30000068 <_waiting_sdram_init_done>:
30000068:	3c012000 	lui	at,0x2000
3000006c:	34210000 	ori	at,at,0x0
30000070:	8c240000 	lw	a0,0(at)
30000074:	00042402 	srl	a0,a0,0x10
30000078:	30840001 	andi	a0,a0,0x1
3000007c:	1080fffa 	beqz	a0,30000068 <_waiting_sdram_init_done>
30000080:	00000000 	nop
30000084:	24010001 	li	at,1
30000088:	3c023000 	lui	v0,0x3000
3000008c:	24420150 	addiu	v0,v0,336
30000090:	3c033000 	lui	v1,0x3000
30000094:	24630169 	addiu	v1,v1,361
30000098:	80650000 	lb	a1,0(v1)
3000009c:	80440000 	lb	a0,0(v0)
300000a0:	0c000049 	jal	30000124 <_print>
300000a4:	20420001 	addi	v0,v0,1
300000a8:	14a0fffc 	bnez	a1,3000009c <_waiting_sdram_init_done+0x34>
300000ac:	00a12823 	subu	a1,a1,at
300000b0:	24050004 	li	a1,4
300000b4:	3c013000 	lui	at,0x3000
300000b8:	34210300 	ori	at,at,0x300
300000bc:	8c210000 	lw	at,0(at)
300000c0:	00000000 	nop
300000c4:	3c020000 	lui	v0,0x0
300000c8:	3c033000 	lui	v1,0x3000
300000cc:	34630304 	ori	v1,v1,0x304
300000d0:	8c640000 	lw	a0,0(v1)
300000d4:	00000000 	nop
300000d8:	ac440000 	sw	a0,0(v0)
300000dc:	20420004 	addi	v0,v0,4
300000e0:	20630004 	addi	v1,v1,4
300000e4:	00000000 	nop
300000e8:	0421fff9 	bgez	at,300000d0 <_waiting_sdram_init_done+0x68>
300000ec:	00250823 	subu	at,at,a1
300000f0:	24010001 	li	at,1
300000f4:	3c023000 	lui	v0,0x3000
300000f8:	2442016a 	addiu	v0,v0,362
300000fc:	3c033000 	lui	v1,0x3000
30000100:	24630185 	addiu	v1,v1,389
30000104:	80650000 	lb	a1,0(v1)
30000108:	80440000 	lb	a0,0(v0)
3000010c:	0c000049 	jal	30000124 <_print>
30000110:	20420001 	addi	v0,v0,1
30000114:	14a0fffc 	bnez	a1,30000108 <_waiting_sdram_init_done+0xa0>
30000118:	00a12822 	sub	a1,a1,at
3000011c:	00000008 	jr	zero
30000120:	00000000 	nop

30000124 <_print>:
30000124:	3c061000 	lui	a2,0x1000
30000128:	34c60000 	ori	a2,a2,0x0
3000012c:	a0c40000 	sb	a0,0(a2)

30000130 <_waiting_transmit_done>:
30000130:	3c061000 	lui	a2,0x1000
30000134:	34c60005 	ori	a2,a2,0x5
30000138:	80c70000 	lb	a3,0(a2)
3000013c:	30e70020 	andi	a3,a3,0x20
30000140:	10e0fffb 	beqz	a3,30000130 <_waiting_transmit_done>
30000144:	00000000 	nop
30000148:	03e00008 	jr	ra
3000014c:	00000000 	nop
Disassembly of section .data:

30000150 <_BootBeginInfoStr>:
30000150:	4c6f6164 	0x4c6f6164
30000154:	696e6720 	0x696e6720
30000158:	4f532069 	c3	0x1532069
3000015c:	6e746f20 	0x6e746f20
30000160:	53445241 	beql	k0,a0,30014a68 <_ram_end+0x148d8>
30000164:	4d2e2e2e 	0x4d2e2e2e
30000168:	0a1a4c6f 	j	386931bc <_ram_end+0x869302c>

30000169 <_BootBeginInfoStrLen>:
30000169:	1a4c 6f61 	jal	3649bd84 <_ram_end+0x649bbf4>

3000016a <_BootEndInfoStr>:
3000016a:	4c6f6164 	0x4c6f6164
3000016e:	204f5320 	addi	t7,v0,21280
30000172:	696e746f 	0x696e746f
30000176:	20534452 	addi	s3,v0,17490
3000017a:	414d2044 	0x414d2044
3000017e:	4f4e4521 	c3	0x14e4521
30000182:	21210a1c 	addi	at,t1,2588

30000185 <_BootEndInfoStrLen>:
30000185:	Address 0x0000000030000185 is out of bounds.

Disassembly of section .reginfo:

00000000 <_ram_end-0x30000190>:
   0:	900000fe 	lbu	zero,254(zero)
	...
